target datalayout = "e-m:e-p270:32:32-p271:32:32-p272:64:64-i64:64-i128:128-f80:128-n8:16:32:64-S128"
target triple = "x86_64-pc-linux-gnu"

%struct.darktable_t = type { %struct.dt_codepath_t, i32, i32, ptr, ptr, ptr, ptr, ptr, ptr, ptr, ptr, ptr, ptr, ptr, ptr, ptr, ptr, ptr, ptr, ptr, ptr, ptr, ptr, ptr, ptr, ptr, ptr, ptr, ptr, ptr, [64 x %struct.dt_pthread_mutex_t], %struct.dt_pthread_mutex_t, %struct.dt_pthread_mutex_t, %struct.dt_pthread_mutex_t, %struct.dt_pthread_mutex_t, %struct.dt_pthread_mutex_t, ptr, ptr, ptr, ptr, ptr, ptr, ptr, ptr, ptr, ptr, ptr, ptr, ptr, %struct.dt_lua_state_t, ptr, double, ptr, i32, [47 x i32], i32, i32, ptr, ptr, %struct.dt_sys_resources_t, %struct.dt_backthumb_t, %struct.dt_gimp_t }
%struct.dt_codepath_t = type { i8, [3 x i8] }
%struct.dt_pthread_mutex_t = type { %union.pthread_mutex_t }
%union.pthread_mutex_t = type { %struct.__pthread_mutex_s }
%struct.__pthread_mutex_s = type { i32, i32, i32, i32, i32, i16, i16, %struct.__pthread_internal_list }
%struct.__pthread_internal_list = type { ptr, ptr }
%struct.dt_lua_state_t = type { i32 }
%struct.dt_sys_resources_t = type { i64, i64, ptr, ptr, i32 }
%struct.dt_backthumb_t = type { double, double, i32, i32, i32, i32 }
%struct.dt_gimp_t = type { i32, ptr, ptr, i32, i32 }

@darktable = external global %struct.darktable_t, align 8
@.str.54 = private unnamed_addr constant [17 x i8] c"_close darktable\00", align 1
@.str.168 = private unnamed_addr constant [46 x i8] c"[init] database `%s' is out-of-date. aborting\00", align 1
@.str.169 = private unnamed_addr constant [184 x i8] c"the database schema has to be upgraded for\0A\0A<span style='italic'>%s</span>\0A\0Athis might take a long time in case of a large database\0A\0Ado you want to proceed or quit now to do a backup\0A\00", align 1
@.str.170 = private unnamed_addr constant [29 x i8] c"darktable - schema migration\00", align 1
@.str.171 = private unnamed_addr constant [18 x i8] c"_upgrade database\00", align 1
@.str.172 = private unnamed_addr constant [50 x i8] c"[init] we shall not update the database, aborting\00", align 1

; Function Attrs: nounwind uwtable
define internal void @_ask_for_upgrade(ptr noundef %0, i32 noundef %1) #0 {
  %3 = alloca ptr, align 8
  %4 = alloca i32, align 4
  %5 = alloca ptr, align 8
  %6 = alloca i32, align 4
  store ptr %0, ptr %3, align 8, !tbaa !18
  store i32 %1, ptr %4, align 4, !tbaa !21
  %7 = load i32, ptr %4, align 4, !tbaa !21
  %8 = icmp ne i32 %7, 0
  br i1 %8, label %19, label %9

9:                                                ; preds = %2
  br label %10

10:                                               ; preds = %9
  %11 = load i32, ptr getelementptr inbounds nuw (%struct.darktable_t, ptr @darktable, i32 0, i32 2), align 8, !tbaa !27
  %12 = xor i32 %11, -1
  %13 = and i32 0, %12
  %14 = icmp ne i32 %13, 0
  br i1 %14, label %17, label %15

15:                                               ; preds = %10
  %16 = load ptr, ptr %3, align 8, !tbaa !18
  call void (ptr, ...) @dt_print_ext(ptr noundef @.str.168, ptr noundef %16)
  br label %17

17:                                               ; preds = %15, %10
  br label %18

18:                                               ; preds = %17
  call void @exit(i32 noundef 1) #15
  unreachable

19:                                               ; preds = %2
  call void @llvm.lifetime.start.p0(i64 8, ptr %5) #13
  %20 = call ptr @dcgettext(ptr noundef null, ptr noundef @.str.169, i32 noundef 5) #13
  %21 = load ptr, ptr %3, align 8, !tbaa !18
  %22 = call ptr (ptr, ...) @g_markup_printf_escaped(ptr noundef %20, ptr noundef %21)
  store ptr %22, ptr %5, align 8, !tbaa !18
  call void @llvm.lifetime.start.p0(i64 4, ptr %6) #13
  %23 = call ptr @dcgettext(ptr noundef null, ptr noundef @.str.170, i32 noundef 5) #13
  %24 = load ptr, ptr %5, align 8, !tbaa !18
  %25 = call ptr @dcgettext(ptr noundef null, ptr noundef @.str.54, i32 noundef 5) #13
  %26 = call ptr @dcgettext(ptr noundef null, ptr noundef @.str.171, i32 noundef 5) #13
  %27 = call i32 @dt_gui_show_standalone_yes_no_dialog(ptr noundef %23, ptr noundef %24, ptr noundef %25, ptr noundef %26)
  store i32 %27, ptr %6, align 4, !tbaa !21
  %28 = load ptr, ptr %5, align 8, !tbaa !18
  call void @g_free(ptr noundef %28)
  %29 = load i32, ptr %6, align 4, !tbaa !21
  %30 = icmp ne i32 %29, 0
  br i1 %30, label %41, label %31

31:                                               ; preds = %19
  br label %32

32:                                               ; preds = %31
  %33 = load i32, ptr getelementptr inbounds nuw (%struct.darktable_t, ptr @darktable, i32 0, i32 2), align 8, !tbaa !27
  %34 = xor i32 %33, -1
  %35 = and i32 0, %34
  %36 = icmp ne i32 %35, 0
  br i1 %36, label %38, label %37

37:                                               ; preds = %32
  call void (ptr, ...) @dt_print_ext(ptr noundef @.str.172)
  br label %38

38:                                               ; preds = %37, %32
  br label %39

39:                                               ; preds = %38
  br label %40

40:                                               ; preds = %39
  call void @exit(i32 noundef 1) #15
  unreachable

41:                                               ; preds = %19
  call void @llvm.lifetime.end.p0(i64 4, ptr %6) #13
  call void @llvm.lifetime.end.p0(i64 8, ptr %5) #13
  ret void
}